target datalayout = "e-m:e-p270:32:32-p271:32:32-p272:64:64-i64:64-i128:128-f80:128-n8:16:32:64-S128"
target triple = "x86_64-pc-linux-gnu"

%struct.gie_ctx = type { [10001 x i8], [10001 x i8], [10001 x i8], ptr, %union.PJ_COORD, %union.PJ_COORD, %union.PJ_COORD, i32, i32, i32, i32, i32, i32, i32, i32, i32, i32, i32, i32, i32, i64, i64, i64, double, i32, i32, i32, ptr, ptr }
%union.PJ_COORD = type { [4 x double] }

@_ZL1T = internal global %struct.gie_ctx zeroinitializer, align 8

; Function Attrs: mustprogress nounwind uwtable
define internal noundef i32 @_ZL9directionPKc(ptr noundef %0) #0 {
  %2 = alloca i32, align 4
  %3 = alloca ptr, align 8
  %4 = alloca ptr, align 8
  store ptr %0, ptr %3, align 8
  %5 = load ptr, ptr %3, align 8
  store ptr %5, ptr %4, align 8
  br label %6

6:                                                ; preds = %12, %1
  %7 = load ptr, ptr %4, align 8
  %8 = load i8, ptr %7, align 1
  %9 = sext i8 %8 to i32
  %10 = call i32 @isspace(i32 noundef %9) #14
  %11 = icmp ne i32 %10, 0
  br i1 %11, label %12, label %15

12:                                               ; preds = %6
  %13 = load ptr, ptr %4, align 8
  %14 = getelementptr inbounds i8, ptr %13, i32 1
  store ptr %14, ptr %4, align 8
  br label %6, !llvm.loop !29

15:                                               ; preds = %6
  %16 = load ptr, ptr %4, align 8
  %17 = load i8, ptr %16, align 1
  %18 = sext i8 %17 to i32
  switch i32 %18, label %21 [
    i32 70, label %19
    i32 102, label %19
    i32 73, label %20
    i32 105, label %20
    i32 82, label %20
    i32 114, label %20
  ]

19:                                               ; preds = %15, %15
  store i32 1, ptr getelementptr inbounds (%struct.gie_ctx, ptr @_ZL1T, i32 0, i32 7), align 8
  br label %22

20:                                               ; preds = %15, %15, %15, %15
  store i32 -1, ptr getelementptr inbounds (%struct.gie_ctx, ptr @_ZL1T, i32 0, i32 7), align 8
  br label %22

21:                                               ; preds = %15
  store i32 1, ptr %2, align 4
  br label %23

22:                                               ; preds = %20, %19
  store i32 0, ptr %2, align 4
  br label %23

23:                                               ; preds = %22, %21
  %24 = load i32, ptr %2, align 4
  ret i32 %24
}