; Function Attrs: mustprogress nofree norecurse nounwind memory(readwrite, argmem: read, inaccessiblemem: read) uwtable
define internal fastcc void @_ZL9directionPKc(ptr nocapture noundef readonly %0) unnamed_addr #18 {
  br label %2

2:                                                ; preds = %2, %1
  %.0 = phi ptr [ %0, %1 ], [ %6, %2 ]
  %3 = load i8, ptr %.0, align 1
  %4 = sext i8 %3 to i32
  %5 = tail call i32 @isspace(i32 noundef %4) #27
  %.not = icmp eq i32 %5, 0
  %6 = getelementptr inbounds i8, ptr %.0, i64 1
  br i1 %.not, label %7, label %2, !llvm.loop !23

7:                                                ; preds = %2
  switch i8 %3, label %10 [
    i8 70, label %9
    i8 102, label %9
    i8 73, label %8
    i8 105, label %8
    i8 82, label %8
    i8 114, label %8
  ]

8:                                                ; preds = %7, %7, %7, %7
  br label %9

9:                                                ; preds = %7, %7, %8
  %storemerge = phi i32 [ -1, %8 ], [ 1, %7 ], [ 1, %7 ]
  store i32 %storemerge, ptr getelementptr inbounds (%struct.gie_ctx, ptr @_ZL1T, i64 0, i32 7), align 8
  br label %10

10:                                               ; preds = %7, %9
  ret void
}